target datalayout = "e-m:e-p270:32:32-p271:32:32-p272:64:64-i64:64-i128:128-f80:128-n8:16:32:64-S128"
target triple = "x86_64-pc-linux-gnu"

@hf_ndmp_file_names = internal global i32 0, align 4
@hf_ndmp_file_stats = internal global i32 0, align 4
@hf_ndmp_file_node = internal global i32 0, align 4
@hf_ndmp_file_fh_info = internal global i32 0, align 4
@ett_ndmp_file = internal global i32 0, align 4
@.str.758 = private unnamed_addr constant [6 x i8] c"File:\00", align 1

; Function Attrs: null_pointer_is_valid sspstrong uwtable
define internal i32 @dissect_ndmp_file(ptr noundef %0, i32 noundef %1, ptr noundef %2, ptr noundef %3, ptr noundef %4) #0 {
  %6 = alloca ptr, align 8
  %7 = alloca i32, align 4
  %8 = alloca ptr, align 8
  %9 = alloca ptr, align 8
  %10 = alloca ptr, align 8
  %11 = alloca ptr, align 8
  %12 = alloca ptr, align 8
  %13 = alloca i32, align 4
  store ptr %0, ptr %6, align 8
  store i32 %1, ptr %7, align 4
  store ptr %2, ptr %8, align 8
  store ptr %3, ptr %9, align 8
  store ptr %4, ptr %10, align 8
  call void @llvm.lifetime.start.p0(i64 8, ptr %11) #9
  call void @llvm.lifetime.start.p0(i64 8, ptr %12) #9
  call void @llvm.lifetime.start.p0(i64 4, ptr %13) #9
  %14 = load i32, ptr %7, align 4
  store i32 %14, ptr %13, align 4
  %15 = load ptr, ptr %9, align 8
  %16 = load ptr, ptr %6, align 8
  %17 = load i32, ptr %7, align 4
  %18 = load i32, ptr @ett_ndmp_file, align 4
  %19 = call ptr @proto_tree_add_subtree(ptr noundef %15, ptr noundef %16, i32 noundef %17, i32 noundef -1, i32 noundef %18, ptr noundef %11, ptr noundef @.str.758)
  store ptr %19, ptr %12, align 8
  %20 = load ptr, ptr %6, align 8
  %21 = load ptr, ptr %8, align 8
  %22 = load ptr, ptr %12, align 8
  %23 = load i32, ptr %7, align 4
  %24 = load i32, ptr @hf_ndmp_file_names, align 4
  %25 = call i32 @dissect_rpc_array(ptr noundef %20, ptr noundef %21, ptr noundef %22, i32 noundef %23, ptr noundef @dissect_file_name, i32 noundef %24)
  store i32 %25, ptr %7, align 4
  %26 = load ptr, ptr %6, align 8
  %27 = load ptr, ptr %8, align 8
  %28 = load ptr, ptr %12, align 8
  %29 = load i32, ptr %7, align 4
  %30 = load i32, ptr @hf_ndmp_file_stats, align 4
  %31 = call i32 @dissect_rpc_array(ptr noundef %26, ptr noundef %27, ptr noundef %28, i32 noundef %29, ptr noundef @dissect_file_stats, i32 noundef %30)
  store i32 %31, ptr %7, align 4
  %32 = load ptr, ptr %12, align 8
  %33 = load i32, ptr @hf_ndmp_file_node, align 4
  %34 = load ptr, ptr %6, align 8
  %35 = load i32, ptr %7, align 4
  %36 = call ptr @proto_tree_add_item(ptr noundef %32, i32 noundef %33, ptr noundef %34, i32 noundef %35, i32 noundef 8, i32 noundef 0)
  %37 = load i32, ptr %7, align 4
  %38 = add i32 %37, 8
  store i32 %38, ptr %7, align 4
  %39 = load ptr, ptr %12, align 8
  %40 = load i32, ptr @hf_ndmp_file_fh_info, align 4
  %41 = load ptr, ptr %6, align 8
  %42 = load i32, ptr %7, align 4
  %43 = call ptr @proto_tree_add_item(ptr noundef %39, i32 noundef %40, ptr noundef %41, i32 noundef %42, i32 noundef 8, i32 noundef 0)
  %44 = load i32, ptr %7, align 4
  %45 = add i32 %44, 8
  store i32 %45, ptr %7, align 4
  %46 = load ptr, ptr %11, align 8
  %47 = load i32, ptr %7, align 4
  %48 = load i32, ptr %13, align 4
  %49 = sub i32 %47, %48
  call void @proto_item_set_len(ptr noundef %46, i32 noundef %49)
  %50 = load i32, ptr %7, align 4
  call void @llvm.lifetime.end.p0(i64 4, ptr %13) #9
  call void @llvm.lifetime.end.p0(i64 8, ptr %12) #9
  call void @llvm.lifetime.end.p0(i64 8, ptr %11) #9
  ret i32 %50
}