; Function Attrs: null_pointer_is_valid sspstrong uwtable
define internal noundef i32 @dissect_ndmp_file(ptr noundef %0, i32 noundef %1, ptr noundef %2, ptr noundef %3, ptr readnone captures(none) %4) #0 {
  %6 = alloca ptr, align 8
  call void @llvm.lifetime.start.p0(i64 8, ptr nonnull %6) #10
  %7 = load i32, ptr @ett_ndmp_file, align 4
  %8 = call ptr @proto_tree_add_subtree(ptr noundef %3, ptr noundef %0, i32 noundef %1, i32 noundef -1, i32 noundef %7, ptr noundef nonnull %6, ptr noundef nonnull @.str.758)
  %9 = load i32, ptr @hf_ndmp_file_names, align 4
  %10 = call i32 @dissect_rpc_array(ptr noundef %0, ptr noundef %2, ptr noundef %8, i32 noundef %1, ptr noundef nonnull @dissect_file_name, i32 noundef %9)
  %11 = load i32, ptr @hf_ndmp_file_stats, align 4
  %12 = call i32 @dissect_rpc_array(ptr noundef %0, ptr noundef %2, ptr noundef %8, i32 noundef %10, ptr noundef nonnull @dissect_file_stats, i32 noundef %11)
  %13 = load i32, ptr @hf_ndmp_file_node, align 4
  %14 = call ptr @proto_tree_add_item(ptr noundef %8, i32 noundef %13, ptr noundef %0, i32 noundef %12, i32 noundef 8, i32 noundef 0)
  %15 = add i32 %12, 8
  %16 = load i32, ptr @hf_ndmp_file_fh_info, align 4
  %17 = call ptr @proto_tree_add_item(ptr noundef %8, i32 noundef %16, ptr noundef %0, i32 noundef %15, i32 noundef 8, i32 noundef 0)
  %18 = add i32 %12, 16
  %19 = load ptr, ptr %6, align 8
  %20 = sub i32 %18, %1
  call void @proto_item_set_len(ptr noundef %19, i32 noundef %20)
  call void @llvm.lifetime.end.p0(i64 8, ptr nonnull %6) #10
  ret i32 %18
}